; Function Attrs: nounwind uwtable
define void @Gia_ManCountPisNodes(ptr noundef %0, ptr noundef %1, ptr noundef %2) local_unnamed_addr #2 {
  tail call void @Gia_ManIncrementTravId(ptr noundef %0) #26
  %4 = getelementptr i8, ptr %0, i64 32
  %.val31 = load ptr, ptr %4, align 8, !tbaa !3
  %5 = getelementptr inbounds nuw i8, ptr %0, i64 176
  %6 = load i32, ptr %5, align 8, !tbaa !60
  %7 = getelementptr inbounds nuw i8, ptr %0, i64 616
  %8 = load ptr, ptr %7, align 8, !tbaa !61
  store i32 %6, ptr %8, align 4, !tbaa !30
  %9 = getelementptr i8, ptr %0, i64 16
  %.val31.fr = freeze ptr %.val31
  %.not = icmp eq ptr %.val31.fr, null
  %.val3036 = load i32, ptr %9, align 8, !tbaa !58
  %10 = icmp slt i32 %.val3036, 1
  %or.cond37 = or i1 %10, %.not
  br i1 %or.cond37, label %.critedge, label %.lr.ph.split.preheader

.lr.ph.split.preheader:                           ; preds = %3
  %11 = getelementptr i8, ptr %0, i64 64
  %.val29 = load ptr, ptr %11, align 8, !tbaa !44
  %12 = getelementptr i8, ptr %.val29, i64 8
  %.val27.val = load ptr, ptr %12, align 8, !tbaa !29
  %13 = getelementptr i8, ptr %.val29, i64 4
  br label %.lr.ph.split

.lr.ph.split:                                     ; preds = %.lr.ph.split.preheader, %.lr.ph.split
  %.val3039 = phi i32 [ %.val30, %.lr.ph.split ], [ %.val3036, %.lr.ph.split.preheader ]
  %.038 = phi i32 [ %22, %.lr.ph.split ], [ 0, %.lr.ph.split.preheader ]
  %.val29.val = load i32, ptr %13, align 4, !tbaa !33
  %14 = sub i32 %.038, %.val3039
  %15 = add i32 %14, %.val29.val
  %16 = sext i32 %15 to i64
  %17 = getelementptr inbounds i32, ptr %.val27.val, i64 %16
  %18 = load i32, ptr %17, align 4, !tbaa !30
  %19 = zext i32 %18 to i64
  %sext.i35 = shl nuw i64 %19, 32
  %20 = ashr exact i64 %sext.i35, 30
  %21 = getelementptr inbounds i8, ptr %8, i64 %20
  store i32 %6, ptr %21, align 4, !tbaa !30
  %22 = add nuw nsw i32 %.038, 1
  %.val30 = load i32, ptr %9, align 8, !tbaa !58
  %.not44 = icmp slt i32 %22, %.val30
  br i1 %.not44, label %.lr.ph.split, label %.critedge, !llvm.loop !69

.critedge:                                        ; preds = %.lr.ph.split, %3
  %23 = getelementptr inbounds nuw i8, ptr %1, i64 4
  store i32 0, ptr %23, align 4, !tbaa !33
  %24 = getelementptr inbounds nuw i8, ptr %2, i64 4
  store i32 0, ptr %24, align 4, !tbaa !33
  %25 = getelementptr inbounds nuw i8, ptr %0, i64 72
  %26 = load ptr, ptr %25, align 8, !tbaa !70
  %27 = getelementptr i8, ptr %26, i64 4
  %.val40 = load i32, ptr %27, align 4, !tbaa !33
  %28 = icmp sgt i32 %.val40, 0
  br i1 %28, label %.lr.ph42, label %.critedge2

.lr.ph42:                                         ; preds = %.critedge, %30
  %indvars.iv = phi i64 [ %indvars.iv.next, %30 ], [ 0, %.critedge ]
  %29 = phi ptr [ %40, %30 ], [ %26, %.critedge ]
  %.val32 = load ptr, ptr %4, align 8, !tbaa !3
  %.not25 = icmp eq ptr %.val32, null
  br i1 %.not25, label %.critedge2, label %30

30:                                               ; preds = %.lr.ph42
  %31 = getelementptr i8, ptr %29, i64 8
  %.val33.val = load ptr, ptr %31, align 8, !tbaa !29
  %32 = getelementptr inbounds nuw i32, ptr %.val33.val, i64 %indvars.iv
  %33 = load i32, ptr %32, align 4, !tbaa !30
  %34 = sext i32 %33 to i64
  %35 = getelementptr inbounds %struct.Gia_Obj_t_, ptr %.val32, i64 %34
  %36 = load i64, ptr %35, align 4
  %37 = and i64 %36, 536870911
  %38 = sub nsw i64 0, %37
  %39 = getelementptr inbounds %struct.Gia_Obj_t_, ptr %35, i64 %38
  tail call void @Gia_ManCountPisNodes_rec(ptr noundef nonnull %0, ptr noundef nonnull %39, ptr noundef %1, ptr noundef %2)
  %indvars.iv.next = add nuw nsw i64 %indvars.iv, 1
  %40 = load ptr, ptr %25, align 8, !tbaa !70
  %41 = getelementptr i8, ptr %40, i64 4
  %.val = load i32, ptr %41, align 4, !tbaa !33
  %42 = sext i32 %.val to i64
  %43 = icmp slt i64 %indvars.iv.next, %42
  br i1 %43, label %.lr.ph42, label %.critedge2, !llvm.loop !71

.critedge2:                                       ; preds = %.lr.ph42, %30, %.critedge
  ret void
}